target datalayout = "e-m:e-p270:32:32-p271:32:32-p272:64:64-i64:64-i128:128-f80:128-n8:16:32:64-S128"
target triple = "x86_64-pc-linux-gnu"

@.str.5 = private unnamed_addr constant [10 x i8] c"127.0.0.1\00", align 1
@.str.13 = private unnamed_addr constant [20 x i8] c"./certs/ca-cert.pem\00", align 1
@.str.14 = private unnamed_addr constant [24 x i8] c"./certs/client-cert.pem\00", align 1
@.str.15 = private unnamed_addr constant [23 x i8] c"./certs/client-key.pem\00", align 1
@lng_index = internal global i32 0, align 4
@.str.78 = private unnamed_addr constant [7 x i8] c"%s%s%s\00", align 1
@.str.79 = private unnamed_addr constant [16 x i8] c"wolfSSL client \00", align 1
@.str.80 = private unnamed_addr constant [6 x i8] c"5.7.6\00", align 1
@.str.81 = private unnamed_addr constant [3 x i8] c"%s\00", align 1
@.str.82 = private unnamed_addr constant [7 x i8] c"%s %s\0A\00", align 1
@.str.83 = private unnamed_addr constant [7 x i8] c"%s %d\0A\00", align 1

; Function Attrs: nounwind uwtable
define internal void @Usage() #0 {
  %1 = alloca i32, align 4
  %2 = alloca ptr, align 8
  call void @llvm.lifetime.start.p0(i64 4, ptr %1) #13
  store i32 0, ptr %1, align 4, !tbaa !8
  call void @llvm.lifetime.start.p0(i64 8, ptr %2) #13
  %3 = load i32, ptr @lng_index, align 4, !tbaa !8
  %4 = sext i32 %3 to i64
  %5 = getelementptr inbounds [2 x [78 x ptr]], ptr @client_usage_msg, i64 0, i64 %4
  %6 = getelementptr inbounds [78 x ptr], ptr %5, i64 0, i64 0
  store ptr %6, ptr %2, align 8, !tbaa !29
  %7 = load ptr, ptr %2, align 8, !tbaa !29
  %8 = load i32, ptr %1, align 4, !tbaa !8
  %9 = sext i32 %8 to i64
  %10 = getelementptr inbounds ptr, ptr %7, i64 %9
  %11 = load ptr, ptr %10, align 8, !tbaa !18
  %12 = call i32 (ptr, ...) @printf(ptr noundef @.str.78, ptr noundef @.str.79, ptr noundef @.str.80, ptr noundef %11)
  %13 = load ptr, ptr %2, align 8, !tbaa !29
  %14 = load i32, ptr %1, align 4, !tbaa !8
  %15 = add nsw i32 %14, 1
  store i32 %15, ptr %1, align 4, !tbaa !8
  %16 = sext i32 %15 to i64
  %17 = getelementptr inbounds ptr, ptr %13, i64 %16
  %18 = load ptr, ptr %17, align 8, !tbaa !18
  %19 = call i32 (ptr, ...) @printf(ptr noundef @.str.81, ptr noundef %18)
  %20 = load ptr, ptr %2, align 8, !tbaa !29
  %21 = load i32, ptr %1, align 4, !tbaa !8
  %22 = add nsw i32 %21, 1
  store i32 %22, ptr %1, align 4, !tbaa !8
  %23 = sext i32 %22 to i64
  %24 = getelementptr inbounds ptr, ptr %20, i64 %23
  %25 = load ptr, ptr %24, align 8, !tbaa !18
  %26 = call i32 (ptr, ...) @printf(ptr noundef @.str.81, ptr noundef %25)
  %27 = load ptr, ptr %2, align 8, !tbaa !29
  %28 = load i32, ptr %1, align 4, !tbaa !8
  %29 = add nsw i32 %28, 1
  store i32 %29, ptr %1, align 4, !tbaa !8
  %30 = sext i32 %29 to i64
  %31 = getelementptr inbounds ptr, ptr %27, i64 %30
  %32 = load ptr, ptr %31, align 8, !tbaa !18
  %33 = call i32 (ptr, ...) @printf(ptr noundef @.str.81, ptr noundef %32)
  %34 = load ptr, ptr %2, align 8, !tbaa !29
  %35 = load i32, ptr %1, align 4, !tbaa !8
  %36 = add nsw i32 %35, 1
  store i32 %36, ptr %1, align 4, !tbaa !8
  %37 = sext i32 %36 to i64
  %38 = getelementptr inbounds ptr, ptr %34, i64 %37
  %39 = load ptr, ptr %38, align 8, !tbaa !18
  %40 = call i32 (ptr, ...) @printf(ptr noundef @.str.82, ptr noundef %39, ptr noundef @.str.5)
  %41 = load ptr, ptr %2, align 8, !tbaa !29
  %42 = load i32, ptr %1, align 4, !tbaa !8
  %43 = add nsw i32 %42, 1
  store i32 %43, ptr %1, align 4, !tbaa !8
  %44 = sext i32 %43 to i64
  %45 = getelementptr inbounds ptr, ptr %41, i64 %44
  %46 = load ptr, ptr %45, align 8, !tbaa !18
  %47 = call i32 (ptr, ...) @printf(ptr noundef @.str.83, ptr noundef %46, i32 noundef 11111)
  %48 = load ptr, ptr %2, align 8, !tbaa !29
  %49 = load i32, ptr %1, align 4, !tbaa !8
  %50 = add nsw i32 %49, 1
  store i32 %50, ptr %1, align 4, !tbaa !8
  %51 = sext i32 %50 to i64
  %52 = getelementptr inbounds ptr, ptr %48, i64 %51
  %53 = load ptr, ptr %52, align 8, !tbaa !18
  %54 = call i32 (ptr, ...) @printf(ptr noundef @.str.83, ptr noundef %53, i32 noundef 3)
  %55 = load ptr, ptr %2, align 8, !tbaa !29
  %56 = load i32, ptr %1, align 4, !tbaa !8
  %57 = add nsw i32 %56, 1
  store i32 %57, ptr %1, align 4, !tbaa !8
  %58 = sext i32 %57 to i64
  %59 = getelementptr inbounds ptr, ptr %55, i64 %58
  %60 = load ptr, ptr %59, align 8, !tbaa !18
  %61 = call i32 (ptr, ...) @printf(ptr noundef @.str.81, ptr noundef %60)
  %62 = load ptr, ptr %2, align 8, !tbaa !29
  %63 = load i32, ptr %1, align 4, !tbaa !8
  %64 = add nsw i32 %63, 1
  store i32 %64, ptr %1, align 4, !tbaa !8
  %65 = sext i32 %64 to i64
  %66 = getelementptr inbounds ptr, ptr %62, i64 %65
  %67 = load ptr, ptr %66, align 8, !tbaa !18
  %68 = call i32 (ptr, ...) @printf(ptr noundef @.str.81, ptr noundef %67)
  %69 = load ptr, ptr %2, align 8, !tbaa !29
  %70 = load i32, ptr %1, align 4, !tbaa !8
  %71 = add nsw i32 %70, 1
  store i32 %71, ptr %1, align 4, !tbaa !8
  %72 = sext i32 %71 to i64
  %73 = getelementptr inbounds ptr, ptr %69, i64 %72
  %74 = load ptr, ptr %73, align 8, !tbaa !18
  %75 = call i32 (ptr, ...) @printf(ptr noundef @.str.82, ptr noundef %74, ptr noundef @.str.14)
  %76 = load ptr, ptr %2, align 8, !tbaa !29
  %77 = load i32, ptr %1, align 4, !tbaa !8
  %78 = add nsw i32 %77, 1
  store i32 %78, ptr %1, align 4, !tbaa !8
  %79 = sext i32 %78 to i64
  %80 = getelementptr inbounds ptr, ptr %76, i64 %79
  %81 = load ptr, ptr %80, align 8, !tbaa !18
  %82 = call i32 (ptr, ...) @printf(ptr noundef @.str.82, ptr noundef %81, ptr noundef @.str.15)
  %83 = load ptr, ptr %2, align 8, !tbaa !29
  %84 = load i32, ptr %1, align 4, !tbaa !8
  %85 = add nsw i32 %84, 1
  store i32 %85, ptr %1, align 4, !tbaa !8
  %86 = sext i32 %85 to i64
  %87 = getelementptr inbounds ptr, ptr %83, i64 %86
  %88 = load ptr, ptr %87, align 8, !tbaa !18
  %89 = call i32 (ptr, ...) @printf(ptr noundef @.str.82, ptr noundef %88, ptr noundef @.str.13)
  %90 = load ptr, ptr %2, align 8, !tbaa !29
  %91 = load i32, ptr %1, align 4, !tbaa !8
  %92 = add nsw i32 %91, 1
  store i32 %92, ptr %1, align 4, !tbaa !8
  %93 = sext i32 %92 to i64
  %94 = getelementptr inbounds ptr, ptr %90, i64 %93
  %95 = load ptr, ptr %94, align 8, !tbaa !18
  %96 = call i32 (ptr, ...) @printf(ptr noundef @.str.83, ptr noundef %95, i32 noundef 1024)
  %97 = load ptr, ptr %2, align 8, !tbaa !29
  %98 = load i32, ptr %1, align 4, !tbaa !8
  %99 = add nsw i32 %98, 1
  store i32 %99, ptr %1, align 4, !tbaa !8
  %100 = sext i32 %99 to i64
  %101 = getelementptr inbounds ptr, ptr %97, i64 %100
  %102 = load ptr, ptr %101, align 8, !tbaa !18
  %103 = call i32 (ptr, ...) @printf(ptr noundef @.str.81, ptr noundef %102)
  %104 = load ptr, ptr %2, align 8, !tbaa !29
  %105 = load i32, ptr %1, align 4, !tbaa !8
  %106 = add nsw i32 %105, 1
  store i32 %106, ptr %1, align 4, !tbaa !8
  %107 = sext i32 %106 to i64
  %108 = getelementptr inbounds ptr, ptr %104, i64 %107
  %109 = load ptr, ptr %108, align 8, !tbaa !18
  %110 = call i32 (ptr, ...) @printf(ptr noundef @.str.81, ptr noundef %109)
  %111 = load ptr, ptr %2, align 8, !tbaa !29
  %112 = load i32, ptr %1, align 4, !tbaa !8
  %113 = add nsw i32 %112, 1
  store i32 %113, ptr %1, align 4, !tbaa !8
  %114 = sext i32 %113 to i64
  %115 = getelementptr inbounds ptr, ptr %111, i64 %114
  %116 = load ptr, ptr %115, align 8, !tbaa !18
  %117 = call i32 (ptr, ...) @printf(ptr noundef @.str.81, ptr noundef %116)
  %118 = load ptr, ptr %2, align 8, !tbaa !29
  %119 = load i32, ptr %1, align 4, !tbaa !8
  %120 = add nsw i32 %119, 1
  store i32 %120, ptr %1, align 4, !tbaa !8
  %121 = sext i32 %120 to i64
  %122 = getelementptr inbounds ptr, ptr %118, i64 %121
  %123 = load ptr, ptr %122, align 8, !tbaa !18
  %124 = call i32 (ptr, ...) @printf(ptr noundef @.str.81, ptr noundef %123)
  %125 = load ptr, ptr %2, align 8, !tbaa !29
  %126 = load i32, ptr %1, align 4, !tbaa !8
  %127 = add nsw i32 %126, 1
  store i32 %127, ptr %1, align 4, !tbaa !8
  %128 = sext i32 %127 to i64
  %129 = getelementptr inbounds ptr, ptr %125, i64 %128
  %130 = load ptr, ptr %129, align 8, !tbaa !18
  %131 = call i32 (ptr, ...) @printf(ptr noundef @.str.81, ptr noundef %130)
  %132 = load ptr, ptr %2, align 8, !tbaa !29
  %133 = load i32, ptr %1, align 4, !tbaa !8
  %134 = add nsw i32 %133, 1
  store i32 %134, ptr %1, align 4, !tbaa !8
  %135 = sext i32 %134 to i64
  %136 = getelementptr inbounds ptr, ptr %132, i64 %135
  %137 = load ptr, ptr %136, align 8, !tbaa !18
  %138 = call i32 (ptr, ...) @printf(ptr noundef @.str.81, ptr noundef %137)
  %139 = load ptr, ptr %2, align 8, !tbaa !29
  %140 = load i32, ptr %1, align 4, !tbaa !8
  %141 = add nsw i32 %140, 1
  store i32 %141, ptr %1, align 4, !tbaa !8
  %142 = sext i32 %141 to i64
  %143 = getelementptr inbounds ptr, ptr %139, i64 %142
  %144 = load ptr, ptr %143, align 8, !tbaa !18
  %145 = call i32 (ptr, ...) @printf(ptr noundef @.str.81, ptr noundef %144)
  %146 = load ptr, ptr %2, align 8, !tbaa !29
  %147 = load i32, ptr %1, align 4, !tbaa !8
  %148 = add nsw i32 %147, 1
  store i32 %148, ptr %1, align 4, !tbaa !8
  %149 = sext i32 %148 to i64
  %150 = getelementptr inbounds ptr, ptr %146, i64 %149
  %151 = load ptr, ptr %150, align 8, !tbaa !18
  %152 = call i32 (ptr, ...) @printf(ptr noundef @.str.81, ptr noundef %151)
  %153 = load ptr, ptr %2, align 8, !tbaa !29
  %154 = load i32, ptr %1, align 4, !tbaa !8
  %155 = add nsw i32 %154, 1
  store i32 %155, ptr %1, align 4, !tbaa !8
  %156 = sext i32 %155 to i64
  %157 = getelementptr inbounds ptr, ptr %153, i64 %156
  %158 = load ptr, ptr %157, align 8, !tbaa !18
  %159 = call i32 (ptr, ...) @printf(ptr noundef @.str.81, ptr noundef %158)
  %160 = load ptr, ptr %2, align 8, !tbaa !29
  %161 = load i32, ptr %1, align 4, !tbaa !8
  %162 = add nsw i32 %161, 1
  store i32 %162, ptr %1, align 4, !tbaa !8
  %163 = sext i32 %162 to i64
  %164 = getelementptr inbounds ptr, ptr %160, i64 %163
  %165 = load ptr, ptr %164, align 8, !tbaa !18
  %166 = call i32 (ptr, ...) @printf(ptr noundef @.str.81, ptr noundef %165)
  %167 = load ptr, ptr %2, align 8, !tbaa !29
  %168 = load i32, ptr %1, align 4, !tbaa !8
  %169 = add nsw i32 %168, 1
  store i32 %169, ptr %1, align 4, !tbaa !8
  %170 = sext i32 %169 to i64
  %171 = getelementptr inbounds ptr, ptr %167, i64 %170
  %172 = load ptr, ptr %171, align 8, !tbaa !18
  %173 = call i32 (ptr, ...) @printf(ptr noundef @.str.81, ptr noundef %172)
  %174 = load ptr, ptr %2, align 8, !tbaa !29
  %175 = load i32, ptr %1, align 4, !tbaa !8
  %176 = add nsw i32 %175, 1
  store i32 %176, ptr %1, align 4, !tbaa !8
  %177 = sext i32 %176 to i64
  %178 = getelementptr inbounds ptr, ptr %174, i64 %177
  %179 = load ptr, ptr %178, align 8, !tbaa !18
  %180 = call i32 (ptr, ...) @printf(ptr noundef @.str.81, ptr noundef %179)
  %181 = load ptr, ptr %2, align 8, !tbaa !29
  %182 = load i32, ptr %1, align 4, !tbaa !8
  %183 = add nsw i32 %182, 1
  store i32 %183, ptr %1, align 4, !tbaa !8
  %184 = sext i32 %183 to i64
  %185 = getelementptr inbounds ptr, ptr %181, i64 %184
  %186 = load ptr, ptr %185, align 8, !tbaa !18
  %187 = call i32 (ptr, ...) @printf(ptr noundef @.str.81, ptr noundef %186)
  %188 = load ptr, ptr %2, align 8, !tbaa !29
  %189 = load i32, ptr %1, align 4, !tbaa !8
  %190 = add nsw i32 %189, 1
  store i32 %190, ptr %1, align 4, !tbaa !8
  %191 = sext i32 %190 to i64
  %192 = getelementptr inbounds ptr, ptr %188, i64 %191
  %193 = load ptr, ptr %192, align 8, !tbaa !18
  %194 = call i32 (ptr, ...) @printf(ptr noundef @.str.81, ptr noundef %193)
  %195 = load ptr, ptr %2, align 8, !tbaa !29
  %196 = load i32, ptr %1, align 4, !tbaa !8
  %197 = add nsw i32 %196, 1
  store i32 %197, ptr %1, align 4, !tbaa !8
  %198 = sext i32 %197 to i64
  %199 = getelementptr inbounds ptr, ptr %195, i64 %198
  %200 = load ptr, ptr %199, align 8, !tbaa !18
  %201 = call i32 (ptr, ...) @printf(ptr noundef @.str.81, ptr noundef %200)
  %202 = load ptr, ptr %2, align 8, !tbaa !29
  %203 = load i32, ptr %1, align 4, !tbaa !8
  %204 = add nsw i32 %203, 1
  store i32 %204, ptr %1, align 4, !tbaa !8
  %205 = sext i32 %204 to i64
  %206 = getelementptr inbounds ptr, ptr %202, i64 %205
  %207 = load ptr, ptr %206, align 8, !tbaa !18
  %208 = call i32 (ptr, ...) @printf(ptr noundef @.str.81, ptr noundef %207)
  %209 = load ptr, ptr %2, align 8, !tbaa !29
  %210 = load i32, ptr %1, align 4, !tbaa !8
  %211 = add nsw i32 %210, 1
  store i32 %211, ptr %1, align 4, !tbaa !8
  %212 = sext i32 %211 to i64
  %213 = getelementptr inbounds ptr, ptr %209, i64 %212
  %214 = load ptr, ptr %213, align 8, !tbaa !18
  %215 = call i32 (ptr, ...) @printf(ptr noundef @.str.81, ptr noundef %214)
  %216 = load ptr, ptr %2, align 8, !tbaa !29
  %217 = load i32, ptr %1, align 4, !tbaa !8
  %218 = add nsw i32 %217, 1
  store i32 %218, ptr %1, align 4, !tbaa !8
  %219 = sext i32 %218 to i64
  %220 = getelementptr inbounds ptr, ptr %216, i64 %219
  %221 = load ptr, ptr %220, align 8, !tbaa !18
  %222 = call i32 (ptr, ...) @printf(ptr noundef @.str.81, ptr noundef %221)
  %223 = load ptr, ptr %2, align 8, !tbaa !29
  %224 = load i32, ptr %1, align 4, !tbaa !8
  %225 = add nsw i32 %224, 1
  store i32 %225, ptr %1, align 4, !tbaa !8
  %226 = sext i32 %225 to i64
  %227 = getelementptr inbounds ptr, ptr %223, i64 %226
  %228 = load ptr, ptr %227, align 8, !tbaa !18
  %229 = call i32 (ptr, ...) @printf(ptr noundef @.str.81, ptr noundef %228)
  %230 = load ptr, ptr %2, align 8, !tbaa !29
  %231 = load i32, ptr %1, align 4, !tbaa !8
  %232 = add nsw i32 %231, 1
  store i32 %232, ptr %1, align 4, !tbaa !8
  %233 = sext i32 %232 to i64
  %234 = getelementptr inbounds ptr, ptr %230, i64 %233
  %235 = load ptr, ptr %234, align 8, !tbaa !18
  %236 = call i32 (ptr, ...) @printf(ptr noundef @.str.81, ptr noundef %235)
  %237 = load ptr, ptr %2, align 8, !tbaa !29
  %238 = load i32, ptr %1, align 4, !tbaa !8
  %239 = add nsw i32 %238, 1
  store i32 %239, ptr %1, align 4, !tbaa !8
  %240 = sext i32 %239 to i64
  %241 = getelementptr inbounds ptr, ptr %237, i64 %240
  %242 = load ptr, ptr %241, align 8, !tbaa !18
  %243 = call i32 (ptr, ...) @printf(ptr noundef @.str.81, ptr noundef %242)
  %244 = load ptr, ptr %2, align 8, !tbaa !29
  %245 = load i32, ptr %1, align 4, !tbaa !8
  %246 = add nsw i32 %245, 1
  store i32 %246, ptr %1, align 4, !tbaa !8
  %247 = sext i32 %246 to i64
  %248 = getelementptr inbounds ptr, ptr %244, i64 %247
  %249 = load ptr, ptr %248, align 8, !tbaa !18
  %250 = call i32 (ptr, ...) @printf(ptr noundef @.str.81, ptr noundef %249)
  %251 = load ptr, ptr %2, align 8, !tbaa !29
  %252 = load i32, ptr %1, align 4, !tbaa !8
  %253 = add nsw i32 %252, 1
  store i32 %253, ptr %1, align 4, !tbaa !8
  %254 = sext i32 %253 to i64
  %255 = getelementptr inbounds ptr, ptr %251, i64 %254
  %256 = load ptr, ptr %255, align 8, !tbaa !18
  %257 = call i32 (ptr, ...) @printf(ptr noundef @.str.81, ptr noundef %256)
  %258 = load ptr, ptr %2, align 8, !tbaa !29
  %259 = load i32, ptr %1, align 4, !tbaa !8
  %260 = add nsw i32 %259, 1
  store i32 %260, ptr %1, align 4, !tbaa !8
  %261 = sext i32 %260 to i64
  %262 = getelementptr inbounds ptr, ptr %258, i64 %261
  %263 = load ptr, ptr %262, align 8, !tbaa !18
  %264 = call i32 (ptr, ...) @printf(ptr noundef @.str.81, ptr noundef %263)
  %265 = load ptr, ptr %2, align 8, !tbaa !29
  %266 = load i32, ptr %1, align 4, !tbaa !8
  %267 = add nsw i32 %266, 1
  store i32 %267, ptr %1, align 4, !tbaa !8
  %268 = sext i32 %267 to i64
  %269 = getelementptr inbounds ptr, ptr %265, i64 %268
  %270 = load ptr, ptr %269, align 8, !tbaa !18
  %271 = call i32 (ptr, ...) @printf(ptr noundef @.str.81, ptr noundef %270)
  %272 = load ptr, ptr %2, align 8, !tbaa !29
  %273 = load i32, ptr %1, align 4, !tbaa !8
  %274 = add nsw i32 %273, 1
  store i32 %274, ptr %1, align 4, !tbaa !8
  %275 = sext i32 %274 to i64
  %276 = getelementptr inbounds ptr, ptr %272, i64 %275
  %277 = load ptr, ptr %276, align 8, !tbaa !18
  %278 = call i32 (ptr, ...) @printf(ptr noundef @.str.81, ptr noundef %277)
  %279 = load ptr, ptr %2, align 8, !tbaa !29
  %280 = load i32, ptr %1, align 4, !tbaa !8
  %281 = add nsw i32 %280, 1
  store i32 %281, ptr %1, align 4, !tbaa !8
  %282 = sext i32 %281 to i64
  %283 = getelementptr inbounds ptr, ptr %279, i64 %282
  %284 = load ptr, ptr %283, align 8, !tbaa !18
  %285 = call i32 (ptr, ...) @printf(ptr noundef @.str.81, ptr noundef %284)
  %286 = load ptr, ptr %2, align 8, !tbaa !29
  %287 = load i32, ptr %1, align 4, !tbaa !8
  %288 = add nsw i32 %287, 1
  store i32 %288, ptr %1, align 4, !tbaa !8
  %289 = sext i32 %288 to i64
  %290 = getelementptr inbounds ptr, ptr %286, i64 %289
  %291 = load ptr, ptr %290, align 8, !tbaa !18
  %292 = call i32 (ptr, ...) @printf(ptr noundef @.str.81, ptr noundef %291)
  %293 = load ptr, ptr %2, align 8, !tbaa !29
  %294 = load i32, ptr %1, align 4, !tbaa !8
  %295 = add nsw i32 %294, 1
  store i32 %295, ptr %1, align 4, !tbaa !8
  %296 = sext i32 %295 to i64
  %297 = getelementptr inbounds ptr, ptr %293, i64 %296
  %298 = load ptr, ptr %297, align 8, !tbaa !18
  %299 = call i32 (ptr, ...) @printf(ptr noundef @.str.81, ptr noundef %298)
  %300 = load ptr, ptr %2, align 8, !tbaa !29
  %301 = load i32, ptr %1, align 4, !tbaa !8
  %302 = add nsw i32 %301, 1
  store i32 %302, ptr %1, align 4, !tbaa !8
  %303 = sext i32 %302 to i64
  %304 = getelementptr inbounds ptr, ptr %300, i64 %303
  %305 = load ptr, ptr %304, align 8, !tbaa !18
  %306 = call i32 (ptr, ...) @printf(ptr noundef @.str.81, ptr noundef %305)
  %307 = load ptr, ptr %2, align 8, !tbaa !29
  %308 = load i32, ptr %1, align 4, !tbaa !8
  %309 = add nsw i32 %308, 1
  store i32 %309, ptr %1, align 4, !tbaa !8
  %310 = sext i32 %309 to i64
  %311 = getelementptr inbounds ptr, ptr %307, i64 %310
  %312 = load ptr, ptr %311, align 8, !tbaa !18
  %313 = call i32 (ptr, ...) @printf(ptr noundef @.str.81, ptr noundef %312)
  %314 = load ptr, ptr %2, align 8, !tbaa !29
  %315 = load i32, ptr %1, align 4, !tbaa !8
  %316 = add nsw i32 %315, 1
  store i32 %316, ptr %1, align 4, !tbaa !8
  %317 = sext i32 %316 to i64
  %318 = getelementptr inbounds ptr, ptr %314, i64 %317
  %319 = load ptr, ptr %318, align 8, !tbaa !18
  %320 = call i32 (ptr, ...) @printf(ptr noundef @.str.81, ptr noundef %319)
  call void @llvm.lifetime.end.p0(i64 8, ptr %2) #13
  call void @llvm.lifetime.end.p0(i64 4, ptr %1) #13
  ret void
}