; Function Attrs: nofree nounwind uwtable
define internal fastcc void @Usage() unnamed_addr #3 {
  %1 = load i32, ptr @lng_index, align 4, !tbaa !4
  %2 = sext i32 %1 to i64
  %3 = getelementptr inbounds [2 x [78 x ptr]], ptr @client_usage_msg, i64 0, i64 %2
  %4 = load ptr, ptr %3, align 16, !tbaa !16
  %5 = tail call i32 (ptr, ...) @printf(ptr noundef nonnull dereferenceable(1) @.str.78, ptr noundef nonnull @.str.79, ptr noundef nonnull @.str.80, ptr noundef %4)
  %6 = getelementptr inbounds nuw i8, ptr %3, i64 8
  %7 = load ptr, ptr %6, align 8, !tbaa !16
  %8 = tail call i32 (ptr, ...) @printf(ptr noundef nonnull dereferenceable(1) @.str.81, ptr noundef %7)
  %9 = getelementptr inbounds nuw i8, ptr %3, i64 16
  %10 = load ptr, ptr %9, align 16, !tbaa !16
  %11 = tail call i32 (ptr, ...) @printf(ptr noundef nonnull dereferenceable(1) @.str.81, ptr noundef %10)
  %12 = getelementptr inbounds nuw i8, ptr %3, i64 24
  %13 = load ptr, ptr %12, align 8, !tbaa !16
  %14 = tail call i32 (ptr, ...) @printf(ptr noundef nonnull dereferenceable(1) @.str.81, ptr noundef %13)
  %15 = getelementptr inbounds nuw i8, ptr %3, i64 32
  %16 = load ptr, ptr %15, align 16, !tbaa !16
  %17 = tail call i32 (ptr, ...) @printf(ptr noundef nonnull dereferenceable(1) @.str.82, ptr noundef %16, ptr noundef nonnull @.str.5)
  %18 = getelementptr inbounds nuw i8, ptr %3, i64 40
  %19 = load ptr, ptr %18, align 8, !tbaa !16
  %20 = tail call i32 (ptr, ...) @printf(ptr noundef nonnull dereferenceable(1) @.str.83, ptr noundef %19, i32 noundef 11111)
  %21 = getelementptr inbounds nuw i8, ptr %3, i64 48
  %22 = load ptr, ptr %21, align 16, !tbaa !16
  %23 = tail call i32 (ptr, ...) @printf(ptr noundef nonnull dereferenceable(1) @.str.83, ptr noundef %22, i32 noundef 3)
  %24 = getelementptr inbounds nuw i8, ptr %3, i64 56
  %25 = load ptr, ptr %24, align 8, !tbaa !16
  %26 = tail call i32 (ptr, ...) @printf(ptr noundef nonnull dereferenceable(1) @.str.81, ptr noundef %25)
  %27 = getelementptr inbounds nuw i8, ptr %3, i64 64
  %28 = load ptr, ptr %27, align 16, !tbaa !16
  %29 = tail call i32 (ptr, ...) @printf(ptr noundef nonnull dereferenceable(1) @.str.81, ptr noundef %28)
  %30 = getelementptr inbounds nuw i8, ptr %3, i64 72
  %31 = load ptr, ptr %30, align 8, !tbaa !16
  %32 = tail call i32 (ptr, ...) @printf(ptr noundef nonnull dereferenceable(1) @.str.82, ptr noundef %31, ptr noundef nonnull @.str.14)
  %33 = getelementptr inbounds nuw i8, ptr %3, i64 80
  %34 = load ptr, ptr %33, align 16, !tbaa !16
  %35 = tail call i32 (ptr, ...) @printf(ptr noundef nonnull dereferenceable(1) @.str.82, ptr noundef %34, ptr noundef nonnull @.str.15)
  %36 = getelementptr inbounds nuw i8, ptr %3, i64 88
  %37 = load ptr, ptr %36, align 8, !tbaa !16
  %38 = tail call i32 (ptr, ...) @printf(ptr noundef nonnull dereferenceable(1) @.str.82, ptr noundef %37, ptr noundef nonnull @.str.13)
  %39 = getelementptr inbounds nuw i8, ptr %3, i64 96
  %40 = load ptr, ptr %39, align 16, !tbaa !16
  %41 = tail call i32 (ptr, ...) @printf(ptr noundef nonnull dereferenceable(1) @.str.83, ptr noundef %40, i32 noundef 1024)
  %42 = getelementptr inbounds nuw i8, ptr %3, i64 104
  %43 = load ptr, ptr %42, align 8, !tbaa !16
  %44 = tail call i32 (ptr, ...) @printf(ptr noundef nonnull dereferenceable(1) @.str.81, ptr noundef %43)
  %45 = getelementptr inbounds nuw i8, ptr %3, i64 112
  %46 = load ptr, ptr %45, align 16, !tbaa !16
  %47 = tail call i32 (ptr, ...) @printf(ptr noundef nonnull dereferenceable(1) @.str.81, ptr noundef %46)
  %48 = getelementptr inbounds nuw i8, ptr %3, i64 120
  %49 = load ptr, ptr %48, align 8, !tbaa !16
  %50 = tail call i32 (ptr, ...) @printf(ptr noundef nonnull dereferenceable(1) @.str.81, ptr noundef %49)
  %51 = getelementptr inbounds nuw i8, ptr %3, i64 128
  %52 = load ptr, ptr %51, align 16, !tbaa !16
  %53 = tail call i32 (ptr, ...) @printf(ptr noundef nonnull dereferenceable(1) @.str.81, ptr noundef %52)
  %54 = getelementptr inbounds nuw i8, ptr %3, i64 136
  %55 = load ptr, ptr %54, align 8, !tbaa !16
  %56 = tail call i32 (ptr, ...) @printf(ptr noundef nonnull dereferenceable(1) @.str.81, ptr noundef %55)
  %57 = getelementptr inbounds nuw i8, ptr %3, i64 144
  %58 = load ptr, ptr %57, align 16, !tbaa !16
  %59 = tail call i32 (ptr, ...) @printf(ptr noundef nonnull dereferenceable(1) @.str.81, ptr noundef %58)
  %60 = getelementptr inbounds nuw i8, ptr %3, i64 152
  %61 = load ptr, ptr %60, align 8, !tbaa !16
  %62 = tail call i32 (ptr, ...) @printf(ptr noundef nonnull dereferenceable(1) @.str.81, ptr noundef %61)
  %63 = getelementptr inbounds nuw i8, ptr %3, i64 160
  %64 = load ptr, ptr %63, align 16, !tbaa !16
  %65 = tail call i32 (ptr, ...) @printf(ptr noundef nonnull dereferenceable(1) @.str.81, ptr noundef %64)
  %66 = getelementptr inbounds nuw i8, ptr %3, i64 168
  %67 = load ptr, ptr %66, align 8, !tbaa !16
  %68 = tail call i32 (ptr, ...) @printf(ptr noundef nonnull dereferenceable(1) @.str.81, ptr noundef %67)
  %69 = getelementptr inbounds nuw i8, ptr %3, i64 176
  %70 = load ptr, ptr %69, align 16, !tbaa !16
  %71 = tail call i32 (ptr, ...) @printf(ptr noundef nonnull dereferenceable(1) @.str.81, ptr noundef %70)
  %72 = getelementptr inbounds nuw i8, ptr %3, i64 184
  %73 = load ptr, ptr %72, align 8, !tbaa !16
  %74 = tail call i32 (ptr, ...) @printf(ptr noundef nonnull dereferenceable(1) @.str.81, ptr noundef %73)
  %75 = getelementptr inbounds nuw i8, ptr %3, i64 192
  %76 = load ptr, ptr %75, align 16, !tbaa !16
  %77 = tail call i32 (ptr, ...) @printf(ptr noundef nonnull dereferenceable(1) @.str.81, ptr noundef %76)
  %78 = getelementptr inbounds nuw i8, ptr %3, i64 200
  %79 = load ptr, ptr %78, align 8, !tbaa !16
  %80 = tail call i32 (ptr, ...) @printf(ptr noundef nonnull dereferenceable(1) @.str.81, ptr noundef %79)
  %81 = getelementptr inbounds nuw i8, ptr %3, i64 208
  %82 = load ptr, ptr %81, align 16, !tbaa !16
  %83 = tail call i32 (ptr, ...) @printf(ptr noundef nonnull dereferenceable(1) @.str.81, ptr noundef %82)
  %84 = getelementptr inbounds nuw i8, ptr %3, i64 216
  %85 = load ptr, ptr %84, align 8, !tbaa !16
  %86 = tail call i32 (ptr, ...) @printf(ptr noundef nonnull dereferenceable(1) @.str.81, ptr noundef %85)
  %87 = getelementptr inbounds nuw i8, ptr %3, i64 224
  %88 = load ptr, ptr %87, align 16, !tbaa !16
  %89 = tail call i32 (ptr, ...) @printf(ptr noundef nonnull dereferenceable(1) @.str.81, ptr noundef %88)
  %90 = getelementptr inbounds nuw i8, ptr %3, i64 232
  %91 = load ptr, ptr %90, align 8, !tbaa !16
  %92 = tail call i32 (ptr, ...) @printf(ptr noundef nonnull dereferenceable(1) @.str.81, ptr noundef %91)
  %93 = getelementptr inbounds nuw i8, ptr %3, i64 240
  %94 = load ptr, ptr %93, align 16, !tbaa !16
  %95 = tail call i32 (ptr, ...) @printf(ptr noundef nonnull dereferenceable(1) @.str.81, ptr noundef %94)
  %96 = getelementptr inbounds nuw i8, ptr %3, i64 248
  %97 = load ptr, ptr %96, align 8, !tbaa !16
  %98 = tail call i32 (ptr, ...) @printf(ptr noundef nonnull dereferenceable(1) @.str.81, ptr noundef %97)
  %99 = getelementptr inbounds nuw i8, ptr %3, i64 256
  %100 = load ptr, ptr %99, align 16, !tbaa !16
  %101 = tail call i32 (ptr, ...) @printf(ptr noundef nonnull dereferenceable(1) @.str.81, ptr noundef %100)
  %102 = getelementptr inbounds nuw i8, ptr %3, i64 264
  %103 = load ptr, ptr %102, align 8, !tbaa !16
  %104 = tail call i32 (ptr, ...) @printf(ptr noundef nonnull dereferenceable(1) @.str.81, ptr noundef %103)
  %105 = getelementptr inbounds nuw i8, ptr %3, i64 272
  %106 = load ptr, ptr %105, align 16, !tbaa !16
  %107 = tail call i32 (ptr, ...) @printf(ptr noundef nonnull dereferenceable(1) @.str.81, ptr noundef %106)
  %108 = getelementptr inbounds nuw i8, ptr %3, i64 280
  %109 = load ptr, ptr %108, align 8, !tbaa !16
  %110 = tail call i32 (ptr, ...) @printf(ptr noundef nonnull dereferenceable(1) @.str.81, ptr noundef %109)
  %111 = getelementptr inbounds nuw i8, ptr %3, i64 288
  %112 = load ptr, ptr %111, align 16, !tbaa !16
  %113 = tail call i32 (ptr, ...) @printf(ptr noundef nonnull dereferenceable(1) @.str.81, ptr noundef %112)
  %114 = getelementptr inbounds nuw i8, ptr %3, i64 296
  %115 = load ptr, ptr %114, align 8, !tbaa !16
  %116 = tail call i32 (ptr, ...) @printf(ptr noundef nonnull dereferenceable(1) @.str.81, ptr noundef %115)
  %117 = getelementptr inbounds nuw i8, ptr %3, i64 304
  %118 = load ptr, ptr %117, align 16, !tbaa !16
  %119 = tail call i32 (ptr, ...) @printf(ptr noundef nonnull dereferenceable(1) @.str.81, ptr noundef %118)
  %120 = getelementptr inbounds nuw i8, ptr %3, i64 312
  %121 = load ptr, ptr %120, align 8, !tbaa !16
  %122 = tail call i32 (ptr, ...) @printf(ptr noundef nonnull dereferenceable(1) @.str.81, ptr noundef %121)
  %puts = tail call i32 @puts(ptr nonnull dereferenceable(1) @str.19)
  %puts89 = tail call i32 @puts(ptr nonnull dereferenceable(1) @str.20)
  %puts90 = tail call i32 @puts(ptr nonnull dereferenceable(1) @str.21)
  %123 = getelementptr inbounds nuw i8, ptr %3, i64 344
  %124 = load ptr, ptr %123, align 8, !tbaa !16
  %125 = tail call i32 (ptr, ...) @printf(ptr noundef nonnull dereferenceable(1) @.str.81, ptr noundef %124)
  %126 = tail call i32 (ptr, ...) @printf(ptr noundef nonnull dereferenceable(1) @.str.81, ptr noundef null)
  ret void
}